; Function Attrs: nounwind uwtable
define dso_local double @estimate_hashagg_tablesize(ptr noundef readonly captures(none) %0, ptr noundef readonly captures(none) %1, ptr noundef readonly captures(none) %2, double noundef %3) local_unnamed_addr #0 {
  %5 = getelementptr inbounds nuw i8, ptr %0, i64 616
  %6 = load ptr, ptr %5, align 8
  %.not.i = icmp eq ptr %6, null
  br i1 %.not.i, label %list_length.exit, label %7

7:                                                ; preds = %4
  %8 = getelementptr inbounds nuw i8, ptr %6, i64 4
  %9 = load i32, ptr %8, align 4
  br label %list_length.exit

list_length.exit:                                 ; preds = %4, %7
  %10 = phi i32 [ %9, %7 ], [ 0, %4 ]
  %11 = getelementptr inbounds nuw i8, ptr %1, i64 16
  %12 = load ptr, ptr %11, align 8
  %13 = getelementptr inbounds nuw i8, ptr %12, i64 40
  %14 = load i32, ptr %13, align 8
  %15 = sext i32 %14 to i64
  %16 = getelementptr inbounds nuw i8, ptr %2, i64 32
  %17 = load i64, ptr %16, align 8
  %18 = tail call i64 @hash_agg_entry_size(i32 noundef %10, i64 noundef %15, i64 noundef %17) #12
  %19 = uitofp i64 %18 to double
  %20 = fmul double %3, %19
  ret double %20
}